target datalayout = "e-m:e-p270:32:32-p271:32:32-p272:64:64-i64:64-i128:128-f80:128-n8:16:32:64-S128"
target triple = "x86_64-pc-linux-gnu"

%struct.linenoiseCompletions = type { i64, ptr }

; Function Attrs: nounwind uwtable
define dso_local void @linenoiseAddCompletion(ptr noundef %0, ptr noundef %1) #0 {
  %3 = alloca ptr, align 8
  %4 = alloca ptr, align 8
  %5 = alloca i64, align 8
  %6 = alloca ptr, align 8
  %7 = alloca ptr, align 8
  %8 = alloca i32, align 4
  store ptr %0, ptr %3, align 8, !tbaa !10
  store ptr %1, ptr %4, align 8, !tbaa !12
  call void @llvm.lifetime.start.p0(i64 8, ptr %5) #12
  %9 = load ptr, ptr %4, align 8, !tbaa !12
  %10 = call i64 @strlen(ptr noundef %9) #13
  store i64 %10, ptr %5, align 8, !tbaa !14
  call void @llvm.lifetime.start.p0(i64 8, ptr %6) #12
  call void @llvm.lifetime.start.p0(i64 8, ptr %7) #12
  %11 = load i64, ptr %5, align 8, !tbaa !14
  %12 = add i64 %11, 1
  %13 = call noalias ptr @malloc(i64 noundef %12) #14
  store ptr %13, ptr %6, align 8, !tbaa !12
  %14 = load ptr, ptr %6, align 8, !tbaa !12
  %15 = icmp eq ptr %14, null
  br i1 %15, label %16, label %17

16:                                               ; preds = %2
  store i32 1, ptr %8, align 4
  br label %48

17:                                               ; preds = %2
  %18 = load ptr, ptr %6, align 8, !tbaa !12
  %19 = load ptr, ptr %4, align 8, !tbaa !12
  %20 = load i64, ptr %5, align 8, !tbaa !14
  %21 = add i64 %20, 1
  call void @llvm.memcpy.p0.p0.i64(ptr align 1 %18, ptr align 1 %19, i64 %21, i1 false)
  %22 = load ptr, ptr %3, align 8, !tbaa !10
  %23 = getelementptr inbounds nuw %struct.linenoiseCompletions, ptr %22, i32 0, i32 1
  %24 = load ptr, ptr %23, align 8, !tbaa !16
  %25 = load ptr, ptr %3, align 8, !tbaa !10
  %26 = getelementptr inbounds nuw %struct.linenoiseCompletions, ptr %25, i32 0, i32 0
  %27 = load i64, ptr %26, align 8, !tbaa !19
  %28 = add i64 %27, 1
  %29 = mul i64 8, %28
  %30 = call ptr @realloc(ptr noundef %24, i64 noundef %29) #15
  store ptr %30, ptr %7, align 8, !tbaa !20
  %31 = load ptr, ptr %7, align 8, !tbaa !20
  %32 = icmp eq ptr %31, null
  br i1 %32, label %33, label %35

33:                                               ; preds = %17
  %34 = load ptr, ptr %6, align 8, !tbaa !12
  call void @free(ptr noundef %34) #12
  store i32 1, ptr %8, align 4
  br label %48

35:                                               ; preds = %17
  %36 = load ptr, ptr %7, align 8, !tbaa !20
  %37 = load ptr, ptr %3, align 8, !tbaa !10
  %38 = getelementptr inbounds nuw %struct.linenoiseCompletions, ptr %37, i32 0, i32 1
  store ptr %36, ptr %38, align 8, !tbaa !16
  %39 = load ptr, ptr %6, align 8, !tbaa !12
  %40 = load ptr, ptr %3, align 8, !tbaa !10
  %41 = getelementptr inbounds nuw %struct.linenoiseCompletions, ptr %40, i32 0, i32 1
  %42 = load ptr, ptr %41, align 8, !tbaa !16
  %43 = load ptr, ptr %3, align 8, !tbaa !10
  %44 = getelementptr inbounds nuw %struct.linenoiseCompletions, ptr %43, i32 0, i32 0
  %45 = load i64, ptr %44, align 8, !tbaa !19
  %46 = add i64 %45, 1
  store i64 %46, ptr %44, align 8, !tbaa !19
  %47 = getelementptr inbounds nuw ptr, ptr %42, i64 %45
  store ptr %39, ptr %47, align 8, !tbaa !12
  store i32 0, ptr %8, align 4
  br label %48

48:                                               ; preds = %35, %33, %16
  call void @llvm.lifetime.end.p0(i64 8, ptr %7) #12
  call void @llvm.lifetime.end.p0(i64 8, ptr %6) #12
  call void @llvm.lifetime.end.p0(i64 8, ptr %5) #12
  %49 = load i32, ptr %8, align 4
  switch i32 %49, label %51 [
    i32 0, label %50
    i32 1, label %50
  ]

50:                                               ; preds = %48, %48
  ret void

51:                                               ; preds = %48
  unreachable
}