; Function Attrs: mustprogress nounwind willreturn uwtable
define dso_local void @linenoiseAddCompletion(ptr noundef captures(none) %0, ptr noundef readonly captures(none) %1) local_unnamed_addr #3 {
  %3 = tail call i64 @strlen(ptr noundef nonnull dereferenceable(1) %1) #25
  %4 = add i64 %3, 1
  %5 = tail call noalias ptr @malloc(i64 noundef %4) #26
  %6 = icmp eq ptr %5, null
  br i1 %6, label %20, label %7

7:                                                ; preds = %2
  tail call void @llvm.memcpy.p0.p0.i64(ptr nonnull align 1 %5, ptr nonnull align 1 %1, i64 %4, i1 false)
  %8 = getelementptr inbounds nuw i8, ptr %0, i64 8
  %9 = load ptr, ptr %8, align 8, !tbaa !10
  %10 = load i64, ptr %0, align 8, !tbaa !14
  %11 = shl i64 %10, 3
  %12 = add i64 %11, 8
  %13 = tail call ptr @realloc(ptr noundef %9, i64 noundef %12) #27
  %14 = icmp eq ptr %13, null
  br i1 %14, label %15, label %16

15:                                               ; preds = %7
  tail call void @free(ptr noundef nonnull %5) #24
  br label %20

16:                                               ; preds = %7
  store ptr %13, ptr %8, align 8, !tbaa !10
  %17 = load i64, ptr %0, align 8, !tbaa !14
  %18 = add i64 %17, 1
  store i64 %18, ptr %0, align 8, !tbaa !14
  %19 = getelementptr inbounds nuw ptr, ptr %13, i64 %17
  store ptr %5, ptr %19, align 8, !tbaa !15
  br label %20

20:                                               ; preds = %2, %16, %15
  ret void
}